target datalayout = "e-m:e-p270:32:32-p271:32:32-p272:64:64-i64:64-i128:128-f80:128-n8:16:32:64-S128"
target triple = "x86_64-pc-linux-gnu"

%struct.AVFormatContext = type { ptr, ptr, ptr, ptr, ptr, i32, i32, ptr, i32, ptr, i32, ptr, ptr, i64, i64, i64, i32, i32, i32, i64, i64, ptr, i32, i32, ptr, i32, i32, i32, i32, ptr, i64, i32, i32, %struct.AVIOInterruptCB, i32, i32, i32, i32, i64, i32, i32, i32, i32, i32, i32, i32, i32, i32, i32, i32, i32, i64, i32, i32, i32, i32, i32, ptr, ptr, ptr, ptr, i32, ptr, ptr, ptr, ptr, i32, ptr, ptr, i64, ptr, ptr, ptr, i64 }
%struct.AVIOInterruptCB = type { ptr, ptr }
%struct.AVPacket = type { ptr, i64, i64, ptr, i32, i32, i32, ptr, i32, i64, i64, ptr, ptr, %struct.AVRational }
%struct.AVRational = type { i32, i32 }
%struct.AVStream = type { ptr, i32, i32, ptr, ptr, %struct.AVRational, i64, i64, i64, i32, i32, %struct.AVRational, ptr, %struct.AVRational, %struct.AVPacket, i32, %struct.AVRational, i32 }
%struct.MXFStreamContext = type { i64, [16 x i8], i32, ptr, ptr, i32, i32, i32, i32, i32, i32, i32, i32, i32, %struct.AVRational, i32, i32, i32, i32, i32, i32, i32, i32, i32, i32, %struct.j2k_info_t }
%struct.j2k_info_t = type { i16, i16, i32, i32, i32, i32, i32, i32, i32, i32, [12 x i8] }

; Function Attrs: nounwind uwtable
define internal i32 @mxf_compare_timestamps(ptr noundef %0, ptr noundef %1, ptr noundef %2) #0 {
  %4 = alloca ptr, align 8
  %5 = alloca ptr, align 8
  %6 = alloca ptr, align 8
  %7 = alloca ptr, align 8
  %8 = alloca ptr, align 8
  store ptr %0, ptr %4, align 8, !tbaa !4
  store ptr %1, ptr %5, align 8, !tbaa !9
  store ptr %2, ptr %6, align 8, !tbaa !9
  call void @llvm.lifetime.start.p0(i64 8, ptr %7) #13
  %9 = load ptr, ptr %4, align 8, !tbaa !4
  %10 = getelementptr inbounds nuw %struct.AVFormatContext, ptr %9, i32 0, i32 7
  %11 = load ptr, ptr %10, align 8, !tbaa !32
  %12 = load ptr, ptr %6, align 8, !tbaa !9
  %13 = getelementptr inbounds nuw %struct.AVPacket, ptr %12, i32 0, i32 5
  %14 = load i32, ptr %13, align 4, !tbaa !33
  %15 = sext i32 %14 to i64
  %16 = getelementptr inbounds ptr, ptr %11, i64 %15
  %17 = load ptr, ptr %16, align 8, !tbaa !38
  %18 = getelementptr inbounds nuw %struct.AVStream, ptr %17, i32 0, i32 4
  %19 = load ptr, ptr %18, align 8, !tbaa !40
  store ptr %19, ptr %7, align 8, !tbaa !43
  call void @llvm.lifetime.start.p0(i64 8, ptr %8) #13
  %20 = load ptr, ptr %4, align 8, !tbaa !4
  %21 = getelementptr inbounds nuw %struct.AVFormatContext, ptr %20, i32 0, i32 7
  %22 = load ptr, ptr %21, align 8, !tbaa !32
  %23 = load ptr, ptr %5, align 8, !tbaa !9
  %24 = getelementptr inbounds nuw %struct.AVPacket, ptr %23, i32 0, i32 5
  %25 = load i32, ptr %24, align 4, !tbaa !33
  %26 = sext i32 %25 to i64
  %27 = getelementptr inbounds ptr, ptr %22, i64 %26
  %28 = load ptr, ptr %27, align 8, !tbaa !38
  %29 = getelementptr inbounds nuw %struct.AVStream, ptr %28, i32 0, i32 4
  %30 = load ptr, ptr %29, align 8, !tbaa !40
  store ptr %30, ptr %8, align 8, !tbaa !43
  %31 = load ptr, ptr %5, align 8, !tbaa !9
  %32 = getelementptr inbounds nuw %struct.AVPacket, ptr %31, i32 0, i32 2
  %33 = load i64, ptr %32, align 8, !tbaa !85
  %34 = load ptr, ptr %6, align 8, !tbaa !9
  %35 = getelementptr inbounds nuw %struct.AVPacket, ptr %34, i32 0, i32 2
  %36 = load i64, ptr %35, align 8, !tbaa !85
  %37 = icmp sgt i64 %33, %36
  br i1 %37, label %56, label %38

38:                                               ; preds = %3
  %39 = load ptr, ptr %5, align 8, !tbaa !9
  %40 = getelementptr inbounds nuw %struct.AVPacket, ptr %39, i32 0, i32 2
  %41 = load i64, ptr %40, align 8, !tbaa !85
  %42 = load ptr, ptr %6, align 8, !tbaa !9
  %43 = getelementptr inbounds nuw %struct.AVPacket, ptr %42, i32 0, i32 2
  %44 = load i64, ptr %43, align 8, !tbaa !85
  %45 = icmp eq i64 %41, %44
  br i1 %45, label %46, label %54

46:                                               ; preds = %38
  %47 = load ptr, ptr %7, align 8, !tbaa !43
  %48 = getelementptr inbounds nuw %struct.MXFStreamContext, ptr %47, i32 0, i32 5
  %49 = load i32, ptr %48, align 8, !tbaa !136
  %50 = load ptr, ptr %8, align 8, !tbaa !43
  %51 = getelementptr inbounds nuw %struct.MXFStreamContext, ptr %50, i32 0, i32 5
  %52 = load i32, ptr %51, align 8, !tbaa !136
  %53 = icmp slt i32 %49, %52
  br label %54

54:                                               ; preds = %46, %38
  %55 = phi i1 [ false, %38 ], [ %53, %46 ]
  br label %56

56:                                               ; preds = %54, %3
  %57 = phi i1 [ true, %3 ], [ %55, %54 ]
  %58 = zext i1 %57 to i32
  call void @llvm.lifetime.end.p0(i64 8, ptr %8) #13
  call void @llvm.lifetime.end.p0(i64 8, ptr %7) #13
  ret i32 %58
}