; Function Attrs: mustprogress nofree norecurse nosync nounwind willreturn memory(read, inaccessiblemem: none) uwtable
define internal range(i32 0, 2) i32 @mxf_compare_timestamps(ptr noundef readonly captures(none) %0, ptr noundef readonly captures(none) %1, ptr noundef readonly captures(none) %2) #8 {
  %4 = getelementptr inbounds nuw i8, ptr %0, i64 48
  %5 = load ptr, ptr %4, align 8, !tbaa !25
  %6 = getelementptr inbounds nuw i8, ptr %2, i64 36
  %7 = load i32, ptr %6, align 4, !tbaa !26
  %8 = sext i32 %7 to i64
  %9 = getelementptr inbounds ptr, ptr %5, i64 %8
  %10 = load ptr, ptr %9, align 8, !tbaa !31
  %11 = getelementptr inbounds nuw i8, ptr %10, i64 24
  %12 = load ptr, ptr %11, align 8, !tbaa !33
  %13 = getelementptr inbounds nuw i8, ptr %1, i64 36
  %14 = load i32, ptr %13, align 4, !tbaa !26
  %15 = sext i32 %14 to i64
  %16 = getelementptr inbounds ptr, ptr %5, i64 %15
  %17 = load ptr, ptr %16, align 8, !tbaa !31
  %18 = getelementptr inbounds nuw i8, ptr %17, i64 24
  %19 = load ptr, ptr %18, align 8, !tbaa !33
  %20 = getelementptr inbounds nuw i8, ptr %1, i64 16
  %21 = load i64, ptr %20, align 8, !tbaa !152
  %22 = getelementptr inbounds nuw i8, ptr %2, i64 16
  %23 = load i64, ptr %22, align 8, !tbaa !152
  %24 = icmp sgt i64 %21, %23
  br i1 %24, label %34, label %25

25:                                               ; preds = %3
  %26 = icmp eq i64 %21, %23
  br i1 %26, label %27, label %34

27:                                               ; preds = %25
  %28 = getelementptr inbounds nuw i8, ptr %12, i64 48
  %29 = load i32, ptr %28, align 8, !tbaa !212
  %30 = getelementptr inbounds nuw i8, ptr %19, i64 48
  %31 = load i32, ptr %30, align 8, !tbaa !212
  %32 = icmp slt i32 %29, %31
  %33 = zext i1 %32 to i32
  br label %34

34:                                               ; preds = %25, %27, %3
  %35 = phi i32 [ 1, %3 ], [ 0, %25 ], [ %33, %27 ]
  ret i32 %35
}